target datalayout = "e-m:e-p270:32:32-p271:32:32-p272:64:64-i64:64-i128:128-f80:128-n8:16:32:64-S128"
target triple = "x86_64-pc-linux-gnu"

%struct.expert_field = type { i32, i32 }
%struct._packet_info = type { ptr, ptr, i32, i32, %struct.nstime_t, %struct.nstime_t, %struct.nstime_t, i8, ptr, ptr, ptr, ptr, %struct._address, %struct._address, %struct._address, %struct._address, %struct._address, %struct._address, i32, ptr, i8, [3 x i8], %struct.anon, i32, i32, i32, i32, ptr, i8, ptr, ptr, i16, i16, i32, i32, i16, i32, i32, ptr, ptr, ptr, i8, i8, i16, i16, i16, i32, i16, i16, ptr, ptr, ptr, ptr, ptr, i32, i32 }
%struct.nstime_t = type { i64, i32 }
%struct._address = type { i32, i32, ptr, ptr }
%struct.anon = type { i8, [3 x i8] }
%struct._proto_node = type { ptr, ptr, ptr, ptr, ptr, ptr, ptr }
%struct.field_info = type { ptr, i32, i32, i32, i32, i32, i32, ptr, ptr, ptr, i32, i32 }

@hf_dlep_signal = internal global i32 0, align 4
@hf_dlep_signal_signature = internal global i32 0, align 4
@hf_dlep_signal_type = internal global i32 0, align 4
@hf_dlep_signal_length = internal global i32 0, align 4
@ett_dlep = internal global i32 0, align 4
@ei_dlep_signal_unexpected_length = internal global %struct.expert_field zeroinitializer, align 4
@.str.128 = private unnamed_addr constant [5 x i8] c"DLEP\00", align 1
@proto_dlep = internal global i32 0, align 4
@.str.200 = private unnamed_addr constant [8 x i8] c"Unknown\00", align 1
@.str.203 = private unnamed_addr constant [18 x i8] c", Signal: %s (%u)\00", align 1
@.str.204 = private unnamed_addr constant [16 x i8] c"Signal: %s (%u)\00", align 1

; Function Attrs: inlinehint nounwind null_pointer_is_valid sspstrong uwtable
define internal void @proto_item_set_hidden(ptr noundef %0) #3 {
  %2 = alloca ptr, align 8
  store ptr %0, ptr %2, align 8
  %3 = load ptr, ptr %2, align 8
  %4 = icmp ne ptr %3, null
  br i1 %4, label %5, label %24

5:                                                ; preds = %1
  br label %6

6:                                                ; preds = %5
  %7 = load ptr, ptr %2, align 8
  %8 = getelementptr inbounds nuw %struct._proto_node, ptr %7, i32 0, i32 5
  %9 = load ptr, ptr %8, align 8
  %10 = icmp ne ptr %9, null
  br i1 %10, label %11, label %22

11:                                               ; preds = %6
  %12 = load ptr, ptr %2, align 8
  %13 = getelementptr inbounds nuw %struct._proto_node, ptr %12, i32 0, i32 5
  %14 = load ptr, ptr %13, align 8
  %15 = getelementptr inbounds nuw %struct.field_info, ptr %14, i32 0, i32 6
  %16 = load i32, ptr %15, align 4
  %17 = or i32 %16, 1
  %18 = load ptr, ptr %2, align 8
  %19 = getelementptr inbounds nuw %struct._proto_node, ptr %18, i32 0, i32 5
  %20 = load ptr, ptr %19, align 8
  %21 = getelementptr inbounds nuw %struct.field_info, ptr %20, i32 0, i32 6
  store i32 %17, ptr %21, align 4
  br label %22

22:                                               ; preds = %11, %6
  br label %23

23:                                               ; preds = %22
  br label %24

24:                                               ; preds = %23, %1
  ret void
}

; Function Attrs: null_pointer_is_valid sspstrong uwtable
define internal i32 @decode_signal_header(ptr noundef %0, i32 noundef %1, ptr noundef %2, ptr noundef %3, ptr noundef %4) #0 {
  %6 = alloca ptr, align 8
  %7 = alloca i32, align 4
  %8 = alloca ptr, align 8
  %9 = alloca ptr, align 8
  %10 = alloca ptr, align 8
  %11 = alloca ptr, align 8
  %12 = alloca i32, align 4
  %13 = alloca i32, align 4
  store ptr %0, ptr %6, align 8
  store i32 %1, ptr %7, align 4
  store ptr %2, ptr %8, align 8
  store ptr %3, ptr %9, align 8
  store ptr %4, ptr %10, align 8
  call void @llvm.lifetime.start.p0(i64 8, ptr %11) #6
  store ptr null, ptr %11, align 8
  call void @llvm.lifetime.start.p0(i64 4, ptr %12) #6
  call void @llvm.lifetime.start.p0(i64 4, ptr %13) #6
  %14 = load ptr, ptr %9, align 8
  %15 = load i32, ptr @hf_dlep_signal, align 4
  %16 = load ptr, ptr %6, align 8
  %17 = load i32, ptr %7, align 4
  %18 = call ptr @proto_tree_add_item(ptr noundef %14, i32 noundef %15, ptr noundef %16, i32 noundef %17, i32 noundef 0, i32 noundef 0)
  store ptr %18, ptr %11, align 8
  %19 = load ptr, ptr %11, align 8
  call void @proto_item_set_hidden(ptr noundef %19)
  %20 = load ptr, ptr %9, align 8
  %21 = load i32, ptr @hf_dlep_signal_signature, align 4
  %22 = load ptr, ptr %6, align 8
  %23 = load i32, ptr %7, align 4
  %24 = call ptr @proto_tree_add_item(ptr noundef %20, i32 noundef %21, ptr noundef %22, i32 noundef %23, i32 noundef 4, i32 noundef 0)
  %25 = load i32, ptr %7, align 4
  %26 = add i32 %25, 4
  store i32 %26, ptr %7, align 4
  %27 = load ptr, ptr %9, align 8
  %28 = load i32, ptr @hf_dlep_signal_type, align 4
  %29 = load ptr, ptr %6, align 8
  %30 = load i32, ptr %7, align 4
  %31 = call ptr @proto_tree_add_item_ret_uint(ptr noundef %27, i32 noundef %28, ptr noundef %29, i32 noundef %30, i32 noundef 2, i32 noundef 0, ptr noundef %12)
  %32 = load ptr, ptr %8, align 8
  %33 = load i32, ptr %12, align 4
  %34 = call ptr @val_to_str_const(i32 noundef %33, ptr noundef @signal_type_vals, ptr noundef @.str.200)
  %35 = load i32, ptr %12, align 4
  call void (ptr, ptr, ...) @proto_item_append_text(ptr noundef %32, ptr noundef @.str.203, ptr noundef %34, i32 noundef %35)
  %36 = load ptr, ptr %10, align 8
  %37 = getelementptr inbounds nuw %struct._packet_info, ptr %36, i32 0, i32 1
  %38 = load ptr, ptr %37, align 8
  %39 = load i32, ptr %12, align 4
  %40 = call ptr @val_to_str_const(i32 noundef %39, ptr noundef @signal_type_vals, ptr noundef @.str.200)
  %41 = load i32, ptr %12, align 4
  call void (ptr, i32, ptr, ...) @col_add_fstr(ptr noundef %38, i32 noundef 25, ptr noundef @.str.204, ptr noundef %40, i32 noundef %41)
  %42 = load i32, ptr %7, align 4
  %43 = add i32 %42, 2
  store i32 %43, ptr %7, align 4
  %44 = load ptr, ptr %9, align 8
  %45 = load i32, ptr @hf_dlep_signal_length, align 4
  %46 = load ptr, ptr %6, align 8
  %47 = load i32, ptr %7, align 4
  %48 = call ptr @proto_tree_add_item_ret_uint(ptr noundef %44, i32 noundef %45, ptr noundef %46, i32 noundef %47, i32 noundef 2, i32 noundef 0, ptr noundef %13)
  store ptr %48, ptr %11, align 8
  %49 = load i32, ptr %7, align 4
  %50 = add i32 %49, 2
  store i32 %50, ptr %7, align 4
  %51 = load i32, ptr %13, align 4
  %52 = load ptr, ptr %6, align 8
  %53 = load i32, ptr %7, align 4
  %54 = call i32 @tvb_reported_length_remaining(ptr noundef %52, i32 noundef %53)
  %55 = icmp ne i32 %51, %54
  br i1 %55, label %56, label %60

56:                                               ; preds = %5
  %57 = load ptr, ptr %10, align 8
  %58 = load ptr, ptr %11, align 8
  %59 = call ptr @expert_add_info(ptr noundef %57, ptr noundef %58, ptr noundef @ei_dlep_signal_unexpected_length)
  br label %60

60:                                               ; preds = %56, %5
  %61 = load i32, ptr %7, align 4
  call void @llvm.lifetime.end.p0(i64 4, ptr %13) #6
  call void @llvm.lifetime.end.p0(i64 4, ptr %12) #6
  call void @llvm.lifetime.end.p0(i64 8, ptr %11) #6
  ret i32 %61
}

; Function Attrs: null_pointer_is_valid sspstrong uwtable
define internal i32 @dissect_dlep_sig(ptr noundef %0, ptr noundef %1, ptr noundef %2, ptr noundef %3) #0 {
  %5 = alloca ptr, align 8
  %6 = alloca ptr, align 8
  %7 = alloca ptr, align 8
  %8 = alloca ptr, align 8
  %9 = alloca i32, align 4
  %10 = alloca ptr, align 8
  %11 = alloca ptr, align 8
  store ptr %0, ptr %5, align 8
  store ptr %1, ptr %6, align 8
  store ptr %2, ptr %7, align 8
  store ptr %3, ptr %8, align 8
  call void @llvm.lifetime.start.p0(i64 4, ptr %9) #6
  store i32 0, ptr %9, align 4
  call void @llvm.lifetime.start.p0(i64 8, ptr %10) #6
  store ptr null, ptr %10, align 8
  call void @llvm.lifetime.start.p0(i64 8, ptr %11) #6
  store ptr null, ptr %11, align 8
  %12 = load ptr, ptr %6, align 8
  %13 = getelementptr inbounds nuw %struct._packet_info, ptr %12, i32 0, i32 1
  %14 = load ptr, ptr %13, align 8
  call void @col_set_str(ptr noundef %14, i32 noundef 35, ptr noundef @.str.128)
  %15 = load ptr, ptr %6, align 8
  %16 = getelementptr inbounds nuw %struct._packet_info, ptr %15, i32 0, i32 1
  %17 = load ptr, ptr %16, align 8
  call void @col_clear(ptr noundef %17, i32 noundef 25)
  %18 = load ptr, ptr %7, align 8
  %19 = load i32, ptr @proto_dlep, align 4
  %20 = load ptr, ptr %5, align 8
  %21 = call ptr @proto_tree_add_item(ptr noundef %18, i32 noundef %19, ptr noundef %20, i32 noundef 0, i32 noundef -1, i32 noundef 0)
  store ptr %21, ptr %10, align 8
  %22 = load ptr, ptr %10, align 8
  %23 = load i32, ptr @ett_dlep, align 4
  %24 = call ptr @proto_item_add_subtree(ptr noundef %22, i32 noundef %23)
  store ptr %24, ptr %11, align 8
  %25 = load ptr, ptr %5, align 8
  %26 = load i32, ptr %9, align 4
  %27 = load ptr, ptr %10, align 8
  %28 = load ptr, ptr %11, align 8
  %29 = load ptr, ptr %6, align 8
  %30 = call i32 @decode_signal_header(ptr noundef %25, i32 noundef %26, ptr noundef %27, ptr noundef %28, ptr noundef %29)
  store i32 %30, ptr %9, align 4
  br label %31

31:                                               ; preds = %36, %4
  %32 = load ptr, ptr %5, align 8
  %33 = load i32, ptr %9, align 4
  %34 = call i32 @tvb_reported_length_remaining(ptr noundef %32, i32 noundef %33)
  %35 = icmp sgt i32 %34, 0
  br i1 %35, label %36, label %42

36:                                               ; preds = %31
  %37 = load ptr, ptr %5, align 8
  %38 = load i32, ptr %9, align 4
  %39 = load ptr, ptr %11, align 8
  %40 = load ptr, ptr %6, align 8
  %41 = call i32 @decode_dataitem(ptr noundef %37, i32 noundef %38, ptr noundef %39, ptr noundef %40)
  store i32 %41, ptr %9, align 4
  br label %31, !llvm.loop !8

42:                                               ; preds = %31
  %43 = load ptr, ptr %5, align 8
  %44 = call i32 @tvb_captured_length(ptr noundef %43)
  call void @llvm.lifetime.end.p0(i64 8, ptr %11) #6
  call void @llvm.lifetime.end.p0(i64 8, ptr %10) #6
  call void @llvm.lifetime.end.p0(i64 4, ptr %9) #6
  ret i32 %44
}