; Function Attrs: null_pointer_is_valid sspstrong uwtable
define internal i32 @dissect_dlep_sig(ptr noundef %0, ptr noundef %1, ptr noundef %2, ptr readnone captures(none) %3) #0 {
  %5 = alloca i32, align 4
  %6 = alloca i32, align 4
  %7 = getelementptr inbounds nuw i8, ptr %1, i64 8
  %8 = load ptr, ptr %7, align 8
  tail call void @col_set_str(ptr noundef %8, i32 noundef 35, ptr noundef nonnull @.str.128)
  %9 = load ptr, ptr %7, align 8
  tail call void @col_clear(ptr noundef %9, i32 noundef 25)
  %10 = load i32, ptr @proto_dlep, align 4
  %11 = tail call ptr @proto_tree_add_item(ptr noundef %2, i32 noundef %10, ptr noundef %0, i32 noundef 0, i32 noundef -1, i32 noundef 0)
  %12 = load i32, ptr @ett_dlep, align 4
  %13 = tail call ptr @proto_item_add_subtree(ptr noundef %11, i32 noundef %12)
  call void @llvm.lifetime.start.p0(i64 4, ptr nonnull %5) #5
  call void @llvm.lifetime.start.p0(i64 4, ptr nonnull %6) #5
  %14 = load i32, ptr @hf_dlep_signal, align 4
  %15 = tail call ptr @proto_tree_add_item(ptr noundef %13, i32 noundef %14, ptr noundef %0, i32 noundef 0, i32 noundef 0, i32 noundef 0)
  %.not.i.i = icmp eq ptr %15, null
  br i1 %.not.i.i, label %proto_item_set_hidden.exit.i, label %16

16:                                               ; preds = %4
  %17 = getelementptr inbounds nuw i8, ptr %15, i64 40
  %18 = load ptr, ptr %17, align 8
  %.not5.i.i = icmp eq ptr %18, null
  br i1 %.not5.i.i, label %proto_item_set_hidden.exit.i, label %19

19:                                               ; preds = %16
  %20 = getelementptr inbounds nuw i8, ptr %18, i64 28
  %21 = load i32, ptr %20, align 4
  %22 = or i32 %21, 1
  store i32 %22, ptr %20, align 4
  br label %proto_item_set_hidden.exit.i

proto_item_set_hidden.exit.i:                     ; preds = %19, %16, %4
  %23 = load i32, ptr @hf_dlep_signal_signature, align 4
  %24 = tail call ptr @proto_tree_add_item(ptr noundef %13, i32 noundef %23, ptr noundef %0, i32 noundef 0, i32 noundef 4, i32 noundef 0)
  %25 = load i32, ptr @hf_dlep_signal_type, align 4
  %26 = call ptr @proto_tree_add_item_ret_uint(ptr noundef %13, i32 noundef %25, ptr noundef %0, i32 noundef 4, i32 noundef 2, i32 noundef 0, ptr noundef nonnull %5)
  %27 = load i32, ptr %5, align 4
  %28 = call ptr @val_to_str_const(i32 noundef %27, ptr noundef nonnull @signal_type_vals, ptr noundef nonnull @.str.200)
  %29 = load i32, ptr %5, align 4
  call void (ptr, ptr, ...) @proto_item_append_text(ptr noundef %11, ptr noundef nonnull @.str.203, ptr noundef %28, i32 noundef %29)
  %30 = load ptr, ptr %7, align 8
  %31 = load i32, ptr %5, align 4
  %32 = call ptr @val_to_str_const(i32 noundef %31, ptr noundef nonnull @signal_type_vals, ptr noundef nonnull @.str.200)
  %33 = load i32, ptr %5, align 4
  call void (ptr, i32, ptr, ...) @col_add_fstr(ptr noundef %30, i32 noundef 25, ptr noundef nonnull @.str.204, ptr noundef %32, i32 noundef %33)
  %34 = load i32, ptr @hf_dlep_signal_length, align 4
  %35 = call ptr @proto_tree_add_item_ret_uint(ptr noundef %13, i32 noundef %34, ptr noundef %0, i32 noundef 6, i32 noundef 2, i32 noundef 0, ptr noundef nonnull %6)
  %36 = load i32, ptr %6, align 4
  %37 = call i32 @tvb_reported_length_remaining(ptr noundef %0, i32 noundef 8)
  %.not.i = icmp eq i32 %36, %37
  br i1 %.not.i, label %decode_signal_header.exit, label %38

38:                                               ; preds = %proto_item_set_hidden.exit.i
  %39 = call ptr @expert_add_info(ptr noundef %1, ptr noundef %35, ptr noundef nonnull @ei_dlep_signal_unexpected_length)
  br label %decode_signal_header.exit

decode_signal_header.exit:                        ; preds = %proto_item_set_hidden.exit.i, %38
  call void @llvm.lifetime.end.p0(i64 4, ptr nonnull %6) #5
  call void @llvm.lifetime.end.p0(i64 4, ptr nonnull %5) #5
  %40 = call i32 @tvb_reported_length_remaining(ptr noundef %0, i32 noundef 8)
  %41 = icmp sgt i32 %40, 0
  br i1 %41, label %.lr.ph, label %._crit_edge

.lr.ph:                                           ; preds = %decode_signal_header.exit, %.lr.ph
  %.016 = phi i32 [ %42, %.lr.ph ], [ 8, %decode_signal_header.exit ]
  %42 = call fastcc i32 @decode_dataitem(ptr noundef %0, i32 noundef %.016, ptr noundef %13, ptr noundef %1)
  %43 = call i32 @tvb_reported_length_remaining(ptr noundef %0, i32 noundef %42)
  %44 = icmp sgt i32 %43, 0
  br i1 %44, label %.lr.ph, label %._crit_edge, !llvm.loop !8

._crit_edge:                                      ; preds = %.lr.ph, %decode_signal_header.exit
  %45 = call i32 @tvb_captured_length(ptr noundef %0)
  ret i32 %45
}